target datalayout = "e-m:e-p270:32:32-p271:32:32-p272:64:64-i64:64-i128:128-f80:128-n8:16:32:64-S128"
target triple = "x86_64-unknown-linux-gnu"

%"class.arrow::Status" = type { ptr }
%"struct.arrow::internal::(anonymous namespace)::TransposeIntsSrc" = type { ptr, ptr, i64, i64, i64, ptr, ptr }

; Function Attrs: mustprogress uwtable
define internal void @_ZN5arrow8internal12_GLOBAL__N_116TransposeIntsSrcclERKNS_8DataTypeE(ptr noalias sret(%"class.arrow::Status") align 8 %agg.result, ptr noundef nonnull align 8 dereferenceable(56) %this, ptr noundef nonnull align 8 dereferenceable(72) %type) #1 align 2 {
entry:
  %result.ptr = alloca ptr, align 8
  %this.addr = alloca ptr, align 8
  %type.addr = alloca ptr, align 8
  store ptr %agg.result, ptr %result.ptr, align 8
  store ptr %this, ptr %this.addr, align 8
  store ptr %type, ptr %type.addr, align 8
  %this1 = load ptr, ptr %this.addr, align 8
  %0 = load ptr, ptr %type.addr, align 8
  call void @_ZN5arrow15VisitTypeInlineINS_8internal12_GLOBAL__N_116TransposeIntsSrcEJEEENS_6StatusERKNS_8DataTypeEPT_DpOT0_(ptr sret(%"class.arrow::Status") align 8 %agg.result, ptr noundef nonnull align 8 dereferenceable(72) %0, ptr noundef %this1)
  ret void
}

; Function Attrs: mustprogress uwtable
define void @_ZN5arrow8internal13TransposeIntsERKNS_8DataTypeES3_PKhPhlllPKi(ptr noalias sret(%"class.arrow::Status") align 8 %agg.result, ptr noundef nonnull align 8 dereferenceable(72) %src_type, ptr noundef nonnull align 8 dereferenceable(72) %dest_type, ptr noundef %src, ptr noundef %dest, i64 noundef %src_offset, i64 noundef %dest_offset, i64 noundef %length, ptr noundef %transpose_map) #1 {
entry:
  %result.ptr = alloca ptr, align 8
  %src_type.addr = alloca ptr, align 8
  %dest_type.addr = alloca ptr, align 8
  %src.addr = alloca ptr, align 8
  %dest.addr = alloca ptr, align 8
  %src_offset.addr = alloca i64, align 8
  %dest_offset.addr = alloca i64, align 8
  %length.addr = alloca i64, align 8
  %transpose_map.addr = alloca ptr, align 8
  %transposer = alloca %"struct.arrow::internal::(anonymous namespace)::TransposeIntsSrc", align 8
  store ptr %agg.result, ptr %result.ptr, align 8
  store ptr %src_type, ptr %src_type.addr, align 8
  store ptr %dest_type, ptr %dest_type.addr, align 8
  store ptr %src, ptr %src.addr, align 8
  store ptr %dest, ptr %dest.addr, align 8
  store i64 %src_offset, ptr %src_offset.addr, align 8
  store i64 %dest_offset, ptr %dest_offset.addr, align 8
  store i64 %length, ptr %length.addr, align 8
  store ptr %transpose_map, ptr %transpose_map.addr, align 8
  %src1 = getelementptr inbounds %"struct.arrow::internal::(anonymous namespace)::TransposeIntsSrc", ptr %transposer, i32 0, i32 0
  %0 = load ptr, ptr %src.addr, align 8
  store ptr %0, ptr %src1, align 8
  %dest2 = getelementptr inbounds %"struct.arrow::internal::(anonymous namespace)::TransposeIntsSrc", ptr %transposer, i32 0, i32 1
  %1 = load ptr, ptr %dest.addr, align 8
  store ptr %1, ptr %dest2, align 8
  %src_offset3 = getelementptr inbounds %"struct.arrow::internal::(anonymous namespace)::TransposeIntsSrc", ptr %transposer, i32 0, i32 2
  %2 = load i64, ptr %src_offset.addr, align 8
  store i64 %2, ptr %src_offset3, align 8
  %dest_offset4 = getelementptr inbounds %"struct.arrow::internal::(anonymous namespace)::TransposeIntsSrc", ptr %transposer, i32 0, i32 3
  %3 = load i64, ptr %dest_offset.addr, align 8
  store i64 %3, ptr %dest_offset4, align 8
  %length5 = getelementptr inbounds %"struct.arrow::internal::(anonymous namespace)::TransposeIntsSrc", ptr %transposer, i32 0, i32 4
  %4 = load i64, ptr %length.addr, align 8
  store i64 %4, ptr %length5, align 8
  %transpose_map6 = getelementptr inbounds %"struct.arrow::internal::(anonymous namespace)::TransposeIntsSrc", ptr %transposer, i32 0, i32 5
  %5 = load ptr, ptr %transpose_map.addr, align 8
  store ptr %5, ptr %transpose_map6, align 8
  %dest_type7 = getelementptr inbounds %"struct.arrow::internal::(anonymous namespace)::TransposeIntsSrc", ptr %transposer, i32 0, i32 6
  %6 = load ptr, ptr %dest_type.addr, align 8
  store ptr %6, ptr %dest_type7, align 8
  %7 = load ptr, ptr %src_type.addr, align 8
  call void @_ZN5arrow8internal12_GLOBAL__N_116TransposeIntsSrcclERKNS_8DataTypeE(ptr sret(%"class.arrow::Status") align 8 %agg.result, ptr noundef nonnull align 8 dereferenceable(56) %transposer, ptr noundef nonnull align 8 dereferenceable(72) %7)
  ret void
}