; Function Attrs: mustprogress uwtable
define void @_ZN5arrow8internal13TransposeIntsERKNS_8DataTypeES3_PKhPhlllPKi(ptr noalias sret(%"class.arrow::Status") align 8 %agg.result, ptr nocapture noundef nonnull readonly align 8 dereferenceable(72) %src_type, ptr noundef nonnull align 8 dereferenceable(72) %dest_type, ptr noundef %src, ptr noundef %dest, i64 noundef %src_offset, i64 noundef %dest_offset, i64 noundef %length, ptr noundef %transpose_map) local_unnamed_addr #6 {
entry:
  %transposer = alloca %"struct.arrow::internal::(anonymous namespace)::TransposeIntsSrc", align 8
  store ptr %src, ptr %transposer, align 8
  %dest2 = getelementptr inbounds i8, ptr %transposer, i64 8
  store ptr %dest, ptr %dest2, align 8
  %src_offset3 = getelementptr inbounds i8, ptr %transposer, i64 16
  store i64 %src_offset, ptr %src_offset3, align 8
  %dest_offset4 = getelementptr inbounds i8, ptr %transposer, i64 24
  store i64 %dest_offset, ptr %dest_offset4, align 8
  %length5 = getelementptr inbounds i8, ptr %transposer, i64 32
  store i64 %length, ptr %length5, align 8
  %transpose_map6 = getelementptr inbounds i8, ptr %transposer, i64 40
  store ptr %transpose_map, ptr %transpose_map6, align 8
  %dest_type7 = getelementptr inbounds i8, ptr %transposer, i64 48
  store ptr %dest_type, ptr %dest_type7, align 8
  %0 = getelementptr inbounds i8, ptr %src_type, i64 40
  %src_type.val = load i32, ptr %0, align 8
  call fastcc void @_ZN5arrow15VisitTypeInlineINS_8internal12_GLOBAL__N_116TransposeIntsSrcEJEEENS_6StatusERKNS_8DataTypeEPT_DpOT0_(ptr noalias align 8 %agg.result, i32 %src_type.val, ptr noundef nonnull %transposer)
  ret void
}